target datalayout = "e-m:e-p270:32:32-p271:32:32-p272:64:64-i64:64-i128:128-f80:128-n8:16:32:64-S128"
target triple = "x86_64-unknown-linux-gnu"

%"class.ue2::(anonymous namespace)::NFABuilderImpl" = type <{ %"class.ue2::NFABuilder", ptr, ptr, %"class.std::unique_ptr.85", %"class.ue2::ExpressionInfo", %"class.std::vector.93", i32, [4 x i8] }>
%"class.ue2::NFABuilder" = type { ptr }
%"class.std::unique_ptr.85" = type { %"struct.std::__uniq_ptr_data.86" }
%"struct.std::__uniq_ptr_data.86" = type { %"class.std::__uniq_ptr_impl.87" }
%"class.std::__uniq_ptr_impl.87" = type { %"class.std::tuple.88" }
%"class.std::tuple.88" = type { %"struct.std::_Tuple_impl.89" }
%"struct.std::_Tuple_impl.89" = type { %"struct.std::_Head_base.92" }
%"struct.std::_Head_base.92" = type { ptr }
%"class.ue2::ExpressionInfo" = type <{ i32, i32, i8, i8, i8, i8, i32, i64, i64, i64, i32, i32, i8, [7 x i8] }>
%"class.std::vector.93" = type { %"struct.std::_Vector_base.94" }
%"struct.std::_Vector_base.94" = type { %"struct.std::_Vector_base<ue2::graph_detail::vertex_descriptor<ue2::ue2_graph<ue2::NGHolder, ue2::NFAGraphVertexProps, ue2::NFAGraphEdgeProps>>, std::allocator<ue2::graph_detail::vertex_descriptor<ue2::ue2_graph<ue2::NGHolder, ue2::NFAGraphVertexProps, ue2::NFAGraphEdgeProps>>>>::_Vector_impl" }
%"struct.std::_Vector_base<ue2::graph_detail::vertex_descriptor<ue2::ue2_graph<ue2::NGHolder, ue2::NFAGraphVertexProps, ue2::NFAGraphEdgeProps>>, std::allocator<ue2::graph_detail::vertex_descriptor<ue2::ue2_graph<ue2::NGHolder, ue2::NFAGraphVertexProps, ue2::NFAGraphEdgeProps>>>>::_Vector_impl" = type { %"struct.std::_Vector_base<ue2::graph_detail::vertex_descriptor<ue2::ue2_graph<ue2::NGHolder, ue2::NFAGraphVertexProps, ue2::NFAGraphEdgeProps>>, std::allocator<ue2::graph_detail::vertex_descriptor<ue2::ue2_graph<ue2::NGHolder, ue2::NFAGraphVertexProps, ue2::NFAGraphEdgeProps>>>>::_Vector_impl_data" }
%"struct.std::_Vector_base<ue2::graph_detail::vertex_descriptor<ue2::ue2_graph<ue2::NGHolder, ue2::NFAGraphVertexProps, ue2::NFAGraphEdgeProps>>, std::allocator<ue2::graph_detail::vertex_descriptor<ue2::ue2_graph<ue2::NGHolder, ue2::NFAGraphVertexProps, ue2::NFAGraphEdgeProps>>>>::_Vector_impl_data" = type { ptr, ptr, ptr }

; Function Attrs: mustprogress uwtable
define internal noundef i32 @_ZN3ue212_GLOBAL__N_114NFABuilderImpl13makePositionsEm(ptr noundef nonnull align 8 dereferenceable(116) %this, i64 noundef %nPositions) unnamed_addr #3 align 2 {
entry:
  %this.addr = alloca ptr, align 8
  %nPositions.addr = alloca i64, align 8
  %base = alloca i32, align 4
  %i = alloca i64, align 8
  store ptr %this, ptr %this.addr, align 8
  store i64 %nPositions, ptr %nPositions.addr, align 8
  %this1 = load ptr, ptr %this.addr, align 8
  %vertIdx = getelementptr inbounds %"class.ue2::(anonymous namespace)::NFABuilderImpl", ptr %this1, i32 0, i32 6
  %0 = load i32, ptr %vertIdx, align 8
  store i32 %0, ptr %base, align 4
  store i64 0, ptr %i, align 8
  br label %for.cond

for.cond:                                         ; preds = %for.inc, %entry
  %1 = load i64, ptr %i, align 8
  %2 = load i64, ptr %nPositions.addr, align 8
  %cmp = icmp ult i64 %1, %2
  br i1 %cmp, label %for.body, label %for.end

for.body:                                         ; preds = %for.cond
  %vertIdx2 = getelementptr inbounds %"class.ue2::(anonymous namespace)::NFABuilderImpl", ptr %this1, i32 0, i32 6
  %3 = load i32, ptr %vertIdx2, align 8
  %inc = add i32 %3, 1
  store i32 %inc, ptr %vertIdx2, align 8
  %vtable = load ptr, ptr %this1, align 8
  %vfn = getelementptr inbounds ptr, ptr %vtable, i64 12
  %4 = load ptr, ptr %vfn, align 8
  call void %4(ptr noundef nonnull align 8 dereferenceable(116) %this1, i32 noundef %3)
  br label %for.inc

for.inc:                                          ; preds = %for.body
  %5 = load i64, ptr %i, align 8
  %inc3 = add i64 %5, 1
  store i64 %inc3, ptr %i, align 8
  br label %for.cond, !llvm.loop !5

for.end:                                          ; preds = %for.cond
  br label %do.body

do.body:                                          ; preds = %for.end
  br label %do.end

do.end:                                           ; preds = %do.body
  %6 = load i32, ptr %base, align 4
  ret i32 %6
}