; Function Attrs: mustprogress uwtable
define internal noundef i32 @_ZN3ue212_GLOBAL__N_114NFABuilderImpl13makePositionsEm(ptr noundef nonnull align 8 dereferenceable(116) %this, i64 noundef %nPositions) unnamed_addr #2 align 2 {
entry:
  %vertIdx = getelementptr inbounds i8, ptr %this, i64 112
  %0 = load i32, ptr %vertIdx, align 8
  %cmp2.not = icmp eq i64 %nPositions, 0
  br i1 %cmp2.not, label %do.end, label %for.body

for.body:                                         ; preds = %entry, %for.body
  %i.03 = phi i64 [ %inc3, %for.body ], [ 0, %entry ]
  %1 = load i32, ptr %vertIdx, align 8
  %inc = add i32 %1, 1
  store i32 %inc, ptr %vertIdx, align 8
  %vtable = load ptr, ptr %this, align 8
  %vfn = getelementptr inbounds i8, ptr %vtable, i64 96
  %2 = load ptr, ptr %vfn, align 8
  tail call void %2(ptr noundef nonnull align 8 dereferenceable(116) %this, i32 noundef %1)
  %inc3 = add nuw i64 %i.03, 1
  %exitcond.not = icmp eq i64 %inc3, %nPositions
  br i1 %exitcond.not, label %do.end, label %for.body, !llvm.loop !18

do.end:                                           ; preds = %for.body, %entry
  ret i32 %0
}